target datalayout = "e-m:e-p270:32:32-p271:32:32-p272:64:64-i64:64-i128:128-f80:128-n8:16:32:64-S128"
target triple = "x86_64-pc-linux-gnu"

%struct.ma_hpf = type { i32, i32, i32, i32, i32, ptr, ptr, ptr, i32 }
%struct.ma_node_base = type { ptr, ptr, ptr, i16, i16, i16, i16, i32, [2 x i64], i64, i32, i32, ptr, ptr, [2 x %struct.ma_node_input_bus], [2 x %struct.ma_node_output_bus], ptr, i32 }
%struct.ma_node_input_bus = type { %struct.ma_node_output_bus, i32, i32, i8 }
%struct.ma_node_output_bus = type { ptr, i8, i8, i8, i32, i32, i32, i32, float, ptr, ptr, ptr }
%struct.ma_hpf_node = type { %struct.ma_node_base, %struct.ma_hpf }

; Function Attrs: nounwind uwtable
define internal void @ma_hpf_node_process_pcm_frames(ptr noundef %0, ptr noundef %1, ptr noundef %2, ptr noundef %3, ptr noundef %4) #0 {
  %6 = alloca ptr, align 8
  %7 = alloca ptr, align 8
  %8 = alloca ptr, align 8
  %9 = alloca ptr, align 8
  %10 = alloca ptr, align 8
  %11 = alloca ptr, align 8
  store ptr %0, ptr %6, align 8, !tbaa !25
  store ptr %1, ptr %7, align 8, !tbaa !826
  store ptr %2, ptr %8, align 8, !tbaa !3
  store ptr %3, ptr %9, align 8, !tbaa !826
  store ptr %4, ptr %10, align 8, !tbaa !3
  call void @llvm.lifetime.start.p0(i64 8, ptr %11) #16
  %12 = load ptr, ptr %6, align 8, !tbaa !25
  store ptr %12, ptr %11, align 8, !tbaa !25
  %13 = load ptr, ptr %11, align 8, !tbaa !25
  %14 = getelementptr inbounds nuw %struct.ma_hpf_node, ptr %13, i32 0, i32 1
  %15 = load ptr, ptr %9, align 8, !tbaa !826
  %16 = getelementptr inbounds ptr, ptr %15, i64 0
  %17 = load ptr, ptr %16, align 8, !tbaa !353
  %18 = load ptr, ptr %7, align 8, !tbaa !826
  %19 = getelementptr inbounds ptr, ptr %18, i64 0
  %20 = load ptr, ptr %19, align 8, !tbaa !353
  %21 = load ptr, ptr %10, align 8, !tbaa !3
  %22 = load i32, ptr %21, align 4, !tbaa !8
  %23 = zext i32 %22 to i64
  %24 = call i32 @ma_hpf_process_pcm_frames(ptr noundef %14, ptr noundef %17, ptr noundef %20, i64 noundef %23)
  call void @llvm.lifetime.end.p0(i64 8, ptr %11) #16
  ret void
}